                              1 ;--------------------------------------------------------
                              2 ; File Created by SDCC : free open source ANSI-C Compiler
                              3 ; Version 3.5.5 #9498 (Linux)
                              4 ;--------------------------------------------------------
                              5 	.module psychics
                              6 	.optsdcc -mz80
                              7 	
                              8 ;--------------------------------------------------------
                              9 ; Public variables in this module
                             10 ;--------------------------------------------------------
                             11 	.globl _sqrtf
                             12 	.globl _powf
                             13 	.globl _EuclideanDistance
                             14 	.globl _AABB_BoxCollision
                             15 ;--------------------------------------------------------
                             16 ; special function registers
                             17 ;--------------------------------------------------------
                             18 ;--------------------------------------------------------
                             19 ; ram data
                             20 ;--------------------------------------------------------
                             21 	.area _DATA
                             22 ;--------------------------------------------------------
                             23 ; ram data
                             24 ;--------------------------------------------------------
                             25 	.area _INITIALIZED
                             26 ;--------------------------------------------------------
                             27 ; absolute external ram data
                             28 ;--------------------------------------------------------
                             29 	.area _DABS (ABS)
                             30 ;--------------------------------------------------------
                             31 ; global & static initialisations
                             32 ;--------------------------------------------------------
                             33 	.area _HOME
                             34 	.area _GSINIT
                             35 	.area _GSFINAL
                             36 	.area _GSINIT
                             37 ;--------------------------------------------------------
                             38 ; Home
                             39 ;--------------------------------------------------------
                             40 	.area _HOME
                             41 	.area _HOME
                             42 ;--------------------------------------------------------
                             43 ; code
                             44 ;--------------------------------------------------------
                             45 	.area _CODE
                             46 ;src/psychics.c:3: f32 EuclideanDistance(const Vector2D *a, const Vector2D *b)
                             47 ;	---------------------------------
                             48 ; Function EuclideanDistance
                             49 ; ---------------------------------
   0000                      50 _EuclideanDistance::
   0000 DD E5         [15]   51 	push	ix
   0002 DD 21 00 00   [14]   52 	ld	ix,#0
   0006 DD 39         [15]   53 	add	ix,sp
   0008 21 F8 FF      [10]   54 	ld	hl,#-8
   000B 39            [11]   55 	add	hl,sp
   000C F9            [ 6]   56 	ld	sp,hl
                             57 ;src/psychics.c:5: return sqrtf(powf(a->x - b->x, 2)+powf(a->y - b->y, 2));;
   000D DD 7E 04      [19]   58 	ld	a,4 (ix)
   0010 DD 77 FC      [19]   59 	ld	-4 (ix),a
   0013 DD 7E 05      [19]   60 	ld	a,5 (ix)
   0016 DD 77 FD      [19]   61 	ld	-3 (ix),a
   0019 DD 6E FC      [19]   62 	ld	l,-4 (ix)
   001C DD 66 FD      [19]   63 	ld	h,-3 (ix)
   001F 4E            [ 7]   64 	ld	c,(hl)
   0020 23            [ 6]   65 	inc	hl
   0021 46            [ 7]   66 	ld	b,(hl)
   0022 DD 7E 06      [19]   67 	ld	a,6 (ix)
   0025 DD 77 FE      [19]   68 	ld	-2 (ix),a
   0028 DD 7E 07      [19]   69 	ld	a,7 (ix)
   002B DD 77 FF      [19]   70 	ld	-1 (ix),a
   002E DD 6E FE      [19]   71 	ld	l,-2 (ix)
   0031 DD 66 FF      [19]   72 	ld	h,-1 (ix)
   0034 5E            [ 7]   73 	ld	e,(hl)
   0035 23            [ 6]   74 	inc	hl
   0036 56            [ 7]   75 	ld	d,(hl)
   0037 79            [ 4]   76 	ld	a,c
   0038 93            [ 4]   77 	sub	a, e
   0039 4F            [ 4]   78 	ld	c,a
   003A 78            [ 4]   79 	ld	a,b
   003B 9A            [ 4]   80 	sbc	a, d
   003C 47            [ 4]   81 	ld	b,a
   003D C5            [11]   82 	push	bc
   003E CDr00r00      [17]   83 	call	___sint2fs
   0041 F1            [10]   84 	pop	af
   0042 4D            [ 4]   85 	ld	c,l
   0043 44            [ 4]   86 	ld	b,h
   0044 21 00 40      [10]   87 	ld	hl,#0x4000
   0047 E5            [11]   88 	push	hl
   0048 21 00 00      [10]   89 	ld	hl,#0x0000
   004B E5            [11]   90 	push	hl
   004C D5            [11]   91 	push	de
   004D C5            [11]   92 	push	bc
   004E CDr00r00      [17]   93 	call	_powf
   0051 F1            [10]   94 	pop	af
   0052 F1            [10]   95 	pop	af
   0053 F1            [10]   96 	pop	af
   0054 F1            [10]   97 	pop	af
   0055 DD 72 FB      [19]   98 	ld	-5 (ix),d
   0058 DD 73 FA      [19]   99 	ld	-6 (ix),e
   005B DD 74 F9      [19]  100 	ld	-7 (ix),h
   005E DD 75 F8      [19]  101 	ld	-8 (ix),l
   0061 DD 6E FC      [19]  102 	ld	l,-4 (ix)
   0064 DD 66 FD      [19]  103 	ld	h,-3 (ix)
   0067 23            [ 6]  104 	inc	hl
   0068 23            [ 6]  105 	inc	hl
   0069 4E            [ 7]  106 	ld	c,(hl)
   006A 23            [ 6]  107 	inc	hl
   006B 46            [ 7]  108 	ld	b,(hl)
   006C DD 6E FE      [19]  109 	ld	l,-2 (ix)
   006F DD 66 FF      [19]  110 	ld	h,-1 (ix)
   0072 23            [ 6]  111 	inc	hl
   0073 23            [ 6]  112 	inc	hl
   0074 5E            [ 7]  113 	ld	e,(hl)
   0075 23            [ 6]  114 	inc	hl
   0076 56            [ 7]  115 	ld	d,(hl)
   0077 79            [ 4]  116 	ld	a,c
   0078 93            [ 4]  117 	sub	a, e
   0079 4F            [ 4]  118 	ld	c,a
   007A 78            [ 4]  119 	ld	a,b
   007B 9A            [ 4]  120 	sbc	a, d
   007C 47            [ 4]  121 	ld	b,a
   007D C5            [11]  122 	push	bc
   007E CDr00r00      [17]  123 	call	___sint2fs
   0081 F1            [10]  124 	pop	af
   0082 4D            [ 4]  125 	ld	c,l
   0083 44            [ 4]  126 	ld	b,h
   0084 21 00 40      [10]  127 	ld	hl,#0x4000
   0087 E5            [11]  128 	push	hl
   0088 21 00 00      [10]  129 	ld	hl,#0x0000
   008B E5            [11]  130 	push	hl
   008C D5            [11]  131 	push	de
   008D C5            [11]  132 	push	bc
   008E CDr00r00      [17]  133 	call	_powf
   0091 F1            [10]  134 	pop	af
   0092 F1            [10]  135 	pop	af
   0093 F1            [10]  136 	pop	af
   0094 F1            [10]  137 	pop	af
   0095 EB            [ 4]  138 	ex	de, hl
   0096 E5            [11]  139 	push	hl
   0097 D5            [11]  140 	push	de
   0098 DD 6E FA      [19]  141 	ld	l,-6 (ix)
   009B DD 66 FB      [19]  142 	ld	h,-5 (ix)
   009E E5            [11]  143 	push	hl
   009F DD 6E F8      [19]  144 	ld	l,-8 (ix)
   00A2 DD 66 F9      [19]  145 	ld	h,-7 (ix)
   00A5 E5            [11]  146 	push	hl
   00A6 CDr00r00      [17]  147 	call	___fsadd
   00A9 F1            [10]  148 	pop	af
   00AA F1            [10]  149 	pop	af
   00AB F1            [10]  150 	pop	af
   00AC F1            [10]  151 	pop	af
   00AD D5            [11]  152 	push	de
   00AE E5            [11]  153 	push	hl
   00AF CDr00r00      [17]  154 	call	_sqrtf
   00B2 DD F9         [10]  155 	ld	sp,ix
   00B4 DD E1         [14]  156 	pop	ix
   00B6 C9            [10]  157 	ret
                            158 ;src/psychics.c:13: u8 AABB_BoxCollision(const Box *a, const Box *b)
                            159 ;	---------------------------------
                            160 ; Function AABB_BoxCollision
                            161 ; ---------------------------------
   00B7                     162 _AABB_BoxCollision::
   00B7 DD E5         [15]  163 	push	ix
   00B9 DD 21 00 00   [14]  164 	ld	ix,#0
   00BD DD 39         [15]  165 	add	ix,sp
                            166 ;src/psychics.c:15: if(a->max.x < b->min.x || a->min.x > b->max.x)
   00BF DD 4E 04      [19]  167 	ld	c,4 (ix)
   00C2 DD 46 05      [19]  168 	ld	b,5 (ix)
   00C5 69            [ 4]  169 	ld	l, c
   00C6 60            [ 4]  170 	ld	h, b
   00C7 11 04 00      [10]  171 	ld	de, #0x0004
   00CA 19            [11]  172 	add	hl, de
   00CB 5E            [ 7]  173 	ld	e,(hl)
   00CC 23            [ 6]  174 	inc	hl
   00CD 56            [ 7]  175 	ld	d,(hl)
   00CE E5            [11]  176 	push	hl
   00CF DD 6E 06      [19]  177 	ld	l,6 (ix)
   00D2 DD 66 07      [19]  178 	ld	h,7 (ix)
   00D5 E5            [11]  179 	push	hl
   00D6 FD E1         [14]  180 	pop	iy
   00D8 E1            [10]  181 	pop	hl
   00D9 FD 6E 00      [19]  182 	ld	l,0 (iy)
   00DC FD 66 01      [19]  183 	ld	h,1 (iy)
   00DF 7B            [ 4]  184 	ld	a,e
   00E0 95            [ 4]  185 	sub	a, l
   00E1 7A            [ 4]  186 	ld	a,d
   00E2 9C            [ 4]  187 	sbc	a, h
   00E3 E2rE8r00      [10]  188 	jp	PO, 00117$
   00E6 EE 80         [ 7]  189 	xor	a, #0x80
   00E8                     190 00117$:
   00E8 FAr05r01      [10]  191 	jp	M,00101$
   00EB 69            [ 4]  192 	ld	l, c
   00EC 60            [ 4]  193 	ld	h, b
   00ED 5E            [ 7]  194 	ld	e,(hl)
   00EE 23            [ 6]  195 	inc	hl
   00EF 56            [ 7]  196 	ld	d,(hl)
   00F0 FD E5         [15]  197 	push	iy
   00F2 E1            [10]  198 	pop	hl
   00F3 23            [ 6]  199 	inc	hl
   00F4 23            [ 6]  200 	inc	hl
   00F5 23            [ 6]  201 	inc	hl
   00F6 23            [ 6]  202 	inc	hl
   00F7 7E            [ 7]  203 	ld	a, (hl)
   00F8 23            [ 6]  204 	inc	hl
   00F9 66            [ 7]  205 	ld	h,(hl)
   00FA 93            [ 4]  206 	sub	a, e
   00FB 7C            [ 4]  207 	ld	a,h
   00FC 9A            [ 4]  208 	sbc	a, d
   00FD E2r02r01      [10]  209 	jp	PO, 00118$
   0100 EE 80         [ 7]  210 	xor	a, #0x80
   0102                     211 00118$:
   0102 F2r09r01      [10]  212 	jp	P,00102$
   0105                     213 00101$:
                            214 ;src/psychics.c:16: return 0;
   0105 2E 00         [ 7]  215 	ld	l,#0x00
   0107 18 41         [12]  216 	jr	00107$
   0109                     217 00102$:
                            218 ;src/psychics.c:17: if(a->max.y < b->min.y || a->min.y > b->max.y)
   0109 69            [ 4]  219 	ld	l, c
   010A 60            [ 4]  220 	ld	h, b
   010B 11 06 00      [10]  221 	ld	de, #0x0006
   010E 19            [11]  222 	add	hl, de
   010F 5E            [ 7]  223 	ld	e,(hl)
   0110 23            [ 6]  224 	inc	hl
   0111 56            [ 7]  225 	ld	d,(hl)
   0112 FD E5         [15]  226 	push	iy
   0114 E1            [10]  227 	pop	hl
   0115 23            [ 6]  228 	inc	hl
   0116 23            [ 6]  229 	inc	hl
   0117 7E            [ 7]  230 	ld	a, (hl)
   0118 23            [ 6]  231 	inc	hl
   0119 66            [ 7]  232 	ld	h,(hl)
   011A 6F            [ 4]  233 	ld	l,a
   011B 7B            [ 4]  234 	ld	a,e
   011C 95            [ 4]  235 	sub	a, l
   011D 7A            [ 4]  236 	ld	a,d
   011E 9C            [ 4]  237 	sbc	a, h
   011F E2r24r01      [10]  238 	jp	PO, 00119$
   0122 EE 80         [ 7]  239 	xor	a, #0x80
   0124                     240 00119$:
   0124 FAr44r01      [10]  241 	jp	M,00104$
   0127 69            [ 4]  242 	ld	l, c
   0128 60            [ 4]  243 	ld	h, b
   0129 23            [ 6]  244 	inc	hl
   012A 23            [ 6]  245 	inc	hl
   012B 4E            [ 7]  246 	ld	c,(hl)
   012C 23            [ 6]  247 	inc	hl
   012D 46            [ 7]  248 	ld	b,(hl)
   012E FD E5         [15]  249 	push	iy
   0130 E1            [10]  250 	pop	hl
   0131 11 06 00      [10]  251 	ld	de, #0x0006
   0134 19            [11]  252 	add	hl, de
   0135 5E            [ 7]  253 	ld	e,(hl)
   0136 23            [ 6]  254 	inc	hl
   0137 56            [ 7]  255 	ld	d,(hl)
   0138 7B            [ 4]  256 	ld	a,e
   0139 91            [ 4]  257 	sub	a, c
   013A 7A            [ 4]  258 	ld	a,d
   013B 98            [ 4]  259 	sbc	a, b
   013C E2r41r01      [10]  260 	jp	PO, 00120$
   013F EE 80         [ 7]  261 	xor	a, #0x80
   0141                     262 00120$:
   0141 F2r48r01      [10]  263 	jp	P,00105$
   0144                     264 00104$:
                            265 ;src/psychics.c:18: return 0;
   0144 2E 00         [ 7]  266 	ld	l,#0x00
   0146 18 02         [12]  267 	jr	00107$
   0148                     268 00105$:
                            269 ;src/psychics.c:19: return 1;
   0148 2E 01         [ 7]  270 	ld	l,#0x01
   014A                     271 00107$:
   014A DD E1         [14]  272 	pop	ix
   014C C9            [10]  273 	ret
                            274 	.area _CODE
                            275 	.area _INITIALIZER
                            276 	.area _CABS (ABS)
